; ModuleID = '10/1451.c'
source_filename = "10/1451.c"
target datalayout = "e-m:e-p270:32:32-p271:32:32-p272:64:64-i64:64-f80:128-n8:16:32:64-S128"
target triple = "x86_64-pc-linux-gnu"

@.str = private unnamed_addr constant [3 x i8] c"%d\00", align 1
@.str.1 = private unnamed_addr constant [4 x i8] c"%d\0A\00", align 1

; Function Attrs: noinline nounwind uwtable
define dso_local void @main() #0 {
  %1 = alloca i32, align 4
  %2 = alloca i32, align 4
  %3 = alloca i32, align 4
  %4 = alloca i32, align 4
  %5 = alloca [25 x i32], align 16
  %6 = alloca [25 x i32], align 16
  store i32 0, i32* %4, align 4
  %7 = bitcast [25 x i32]* %5 to i8*
  call void @llvm.memset.p0i8.i64(i8* align 16 %7, i8 0, i64 100, i1 false)
  %8 = bitcast [25 x i32]* %6 to i8*
  call void @llvm.memset.p0i8.i64(i8* align 16 %8, i8 0, i64 100, i1 false)
  %9 = call i32 (i8*, ...) @__isoc99_scanf(i8* getelementptr inbounds ([3 x i8], [3 x i8]* @.str, i64 0, i64 0), i32* %1)
  store i32 0, i32* %2, align 4
  br label %10

10:                                               ; preds = %20, %0
  %11 = load i32, i32* %2, align 4
  %12 = load i32, i32* %1, align 4
  %13 = sub nsw i32 %12, 1
  %14 = icmp sle i32 %11, %13
  br i1 %14, label %15, label %23

15:                                               ; preds = %10
  %16 = load i32, i32* %2, align 4
  %17 = sext i32 %16 to i64
  %18 = getelementptr inbounds [25 x i32], [25 x i32]* %5, i64 0, i64 %17
  %19 = call i32 (i8*, ...) @__isoc99_scanf(i8* getelementptr inbounds ([3 x i8], [3 x i8]* @.str, i64 0, i64 0), i32* %18)
  br label %20

20:                                               ; preds = %15
  %21 = load i32, i32* %2, align 4
  %22 = add nsw i32 %21, 1
  store i32 %22, i32* %2, align 4
  br label %10

23:                                               ; preds = %10
  %24 = load i32, i32* %1, align 4
  %25 = sub nsw i32 %24, 1
  %26 = sext i32 %25 to i64
  %27 = getelementptr inbounds [25 x i32], [25 x i32]* %6, i64 0, i64 %26
  store i32 1, i32* %27, align 4
  %28 = load i32, i32* %1, align 4
  %29 = sub nsw i32 %28, 2
  store i32 %29, i32* %2, align 4
  br label %30

30:                                               ; preds = %85, %23
  %31 = load i32, i32* %2, align 4
  %32 = icmp sge i32 %31, 0
  br i1 %32, label %33, label %88

33:                                               ; preds = %30
  %34 = load i32, i32* %2, align 4
  %35 = add nsw i32 %34, 1
  store i32 %35, i32* %3, align 4
  br label %36

36:                                               ; preds = %71, %33
  %37 = load i32, i32* %3, align 4
  %38 = load i32, i32* %1, align 4
  %39 = sub nsw i32 %38, 1
  %40 = icmp sle i32 %37, %39
  br i1 %40, label %41, label %74

41:                                               ; preds = %36
  %42 = load i32, i32* %2, align 4
  %43 = sext i32 %42 to i64
  %44 = getelementptr inbounds [25 x i32], [25 x i32]* %5, i64 0, i64 %43
  %45 = load i32, i32* %44, align 4
  %46 = load i32, i32* %3, align 4
  %47 = sext i32 %46 to i64
  %48 = getelementptr inbounds [25 x i32], [25 x i32]* %5, i64 0, i64 %47
  %49 = load i32, i32* %48, align 4
  %50 = icmp sge i32 %45, %49
  br i1 %50, label %51, label %70

51:                                               ; preds = %41
  %52 = load i32, i32* %2, align 4
  %53 = sext i32 %52 to i64
  %54 = getelementptr inbounds [25 x i32], [25 x i32]* %6, i64 0, i64 %53
  %55 = load i32, i32* %54, align 4
  %56 = load i32, i32* %3, align 4
  %57 = sext i32 %56 to i64
  %58 = getelementptr inbounds [25 x i32], [25 x i32]* %6, i64 0, i64 %57
  %59 = load i32, i32* %58, align 4
  %60 = icmp sle i32 %55, %59
  br i1 %60, label %61, label %70

61:                                               ; preds = %51
  %62 = load i32, i32* %3, align 4
  %63 = sext i32 %62 to i64
  %64 = getelementptr inbounds [25 x i32], [25 x i32]* %6, i64 0, i64 %63
  %65 = load i32, i32* %64, align 4
  %66 = add nsw i32 %65, 1
  %67 = load i32, i32* %2, align 4
  %68 = sext i32 %67 to i64
  %69 = getelementptr inbounds [25 x i32], [25 x i32]* %6, i64 0, i64 %68
  store i32 %66, i32* %69, align 4
  br label %70

70:                                               ; preds = %61, %51, %41
  br label %71

71:                                               ; preds = %70
  %72 = load i32, i32* %3, align 4
  %73 = add nsw i32 %72, 1
  store i32 %73, i32* %3, align 4
  br label %36

74:                                               ; preds = %36
  %75 = load i32, i32* %2, align 4
  %76 = sext i32 %75 to i64
  %77 = getelementptr inbounds [25 x i32], [25 x i32]* %6, i64 0, i64 %76
  %78 = load i32, i32* %77, align 4
  %79 = icmp eq i32 %78, 0
  br i1 %79, label %80, label %84

80:                                               ; preds = %74
  %81 = load i32, i32* %2, align 4
  %82 = sext i32 %81 to i64
  %83 = getelementptr inbounds [25 x i32], [25 x i32]* %6, i64 0, i64 %82
  store i32 1, i32* %83, align 4
  br label %84

84:                                               ; preds = %80, %74
  br label %85

85:                                               ; preds = %84
  %86 = load i32, i32* %2, align 4
  %87 = add nsw i32 %86, -1
  store i32 %87, i32* %2, align 4
  br label %30

88:                                               ; preds = %30
  store i32 0, i32* %2, align 4
  br label %89

89:                                               ; preds = %136, %88
  %90 = load i32, i32* %2, align 4
  %91 = load i32, i32* %1, align 4
  %92 = sub nsw i32 %91, 2
  %93 = icmp sle i32 %90, %92
  br i1 %93, label %94, label %139

94:                                               ; preds = %89
  store i32 0, i32* %3, align 4
  br label %95

95:                                               ; preds = %132, %94
  %96 = load i32, i32* %3, align 4
  %97 = load i32, i32* %1, align 4
  %98 = sub nsw i32 %97, 2
  %99 = load i32, i32* %2, align 4
  %100 = sub nsw i32 %98, %99
  %101 = icmp sle i32 %96, %100
  br i1 %101, label %102, label %135

102:                                              ; preds = %95
  %103 = load i32, i32* %3, align 4
  %104 = sext i32 %103 to i64
  %105 = getelementptr inbounds [25 x i32], [25 x i32]* %6, i64 0, i64 %104
  %106 = load i32, i32* %105, align 4
  %107 = load i32, i32* %3, align 4
  %108 = add nsw i32 %107, 1
  %109 = sext i32 %108 to i64
  %110 = getelementptr inbounds [25 x i32], [25 x i32]* %6, i64 0, i64 %109
  %111 = load i32, i32* %110, align 4
  %112 = icmp sgt i32 %106, %111
  br i1 %112, label %113, label %131

113:                                              ; preds = %102
  %114 = load i32, i32* %3, align 4
  %115 = add nsw i32 %114, 1
  %116 = sext i32 %115 to i64
  %117 = getelementptr inbounds [25 x i32], [25 x i32]* %6, i64 0, i64 %116
  %118 = load i32, i32* %117, align 4
  store i32 %118, i32* %4, align 4
  %119 = load i32, i32* %3, align 4
  %120 = sext i32 %119 to i64
  %121 = getelementptr inbounds [25 x i32], [25 x i32]* %6, i64 0, i64 %120
  %122 = load i32, i32* %121, align 4
  %123 = load i32, i32* %3, align 4
  %124 = add nsw i32 %123, 1
  %125 = sext i32 %124 to i64
  %126 = getelementptr inbounds [25 x i32], [25 x i32]* %6, i64 0, i64 %125
  store i32 %122, i32* %126, align 4
  %127 = load i32, i32* %4, align 4
  %128 = load i32, i32* %3, align 4
  %129 = sext i32 %128 to i64
  %130 = getelementptr inbounds [25 x i32], [25 x i32]* %6, i64 0, i64 %129
  store i32 %127, i32* %130, align 4
  br label %131

131:                                              ; preds = %113, %102
  br label %132

132:                                              ; preds = %131
  %133 = load i32, i32* %3, align 4
  %134 = add nsw i32 %133, 1
  store i32 %134, i32* %3, align 4
  br label %95

135:                                              ; preds = %95
  br label %136

136:                                              ; preds = %135
  %137 = load i32, i32* %2, align 4
  %138 = add nsw i32 %137, 1
  store i32 %138, i32* %2, align 4
  br label %89

139:                                              ; preds = %89
  %140 = load i32, i32* %1, align 4
  %141 = sub nsw i32 %140, 1
  %142 = sext i32 %141 to i64
  %143 = getelementptr inbounds [25 x i32], [25 x i32]* %6, i64 0, i64 %142
  %144 = load i32, i32* %143, align 4
  %145 = call i32 (i8*, ...) @printf(i8* getelementptr inbounds ([4 x i8], [4 x i8]* @.str.1, i64 0, i64 0), i32 %144)
  ret void
}

; Function Attrs: argmemonly nounwind willreturn
declare void @llvm.memset.p0i8.i64(i8* nocapture writeonly, i8, i64, i1 immarg) #1

declare dso_local i32 @__isoc99_scanf(i8*, ...) #2

declare dso_local i32 @printf(i8*, ...) #2


!llvm.module.flags = !{!0}
!llvm.ident = !{!1}

!0 = !{i32 1, !"wchar_size", i32 4}
!1 = !{!"clang version 10.0.0-4ubuntu1 "}
